target datalayout = "e-m:e-p270:32:32-p271:32:32-p272:64:64-i64:64-i128:128-f80:128-n8:16:32:64-S128"
target triple = "x86_64-pc-linux-gnu"

%struct.stmm_table = type { ptr, ptr, i32, i32, i32, i32, double, ptr, ptr }

; Function Attrs: nounwind uwtable
define void @stmm_free_table(ptr noundef %0) #0 {
  %2 = alloca ptr, align 8
  store ptr %0, ptr %2, align 8
  %3 = load ptr, ptr %2, align 8
  %4 = getelementptr inbounds %struct.stmm_table, ptr %3, i32 0, i32 8
  %5 = load ptr, ptr %4, align 8
  %6 = icmp ne ptr %5, null
  br i1 %6, label %7, label %11

7:                                                ; preds = %1
  %8 = load ptr, ptr %2, align 8
  %9 = getelementptr inbounds %struct.stmm_table, ptr %8, i32 0, i32 8
  %10 = load ptr, ptr %9, align 8
  call void @Extra_MmFixedStop(ptr noundef %10)
  br label %11

11:                                               ; preds = %7, %1
  %12 = load ptr, ptr %2, align 8
  %13 = getelementptr inbounds %struct.stmm_table, ptr %12, i32 0, i32 7
  %14 = load ptr, ptr %13, align 8
  %15 = icmp ne ptr %14, null
  br i1 %15, label %16, label %22

16:                                               ; preds = %11
  %17 = load ptr, ptr %2, align 8
  %18 = getelementptr inbounds %struct.stmm_table, ptr %17, i32 0, i32 7
  %19 = load ptr, ptr %18, align 8
  call void @free(ptr noundef %19) #6
  %20 = load ptr, ptr %2, align 8
  %21 = getelementptr inbounds %struct.stmm_table, ptr %20, i32 0, i32 7
  store ptr null, ptr %21, align 8
  br label %23

22:                                               ; preds = %11
  br label %23

23:                                               ; preds = %22, %16
  %24 = load ptr, ptr %2, align 8
  %25 = icmp ne ptr %24, null
  br i1 %25, label %26, label %28

26:                                               ; preds = %23
  %27 = load ptr, ptr %2, align 8
  call void @free(ptr noundef %27) #6
  store ptr null, ptr %2, align 8
  br label %29

28:                                               ; preds = %23
  br label %29

29:                                               ; preds = %28, %26
  ret void
}